target datalayout = "e-m:e-p270:32:32-p271:32:32-p272:64:64-i64:64-i128:128-f80:128-n8:16:32:64-S128"
target triple = "x86_64-pc-linux-gnu"

%"struct.Atomic::StoreImpl" = type { i8 }
%"struct.Atomic::PlatformOrderedStore" = type { i8 }

$_Z12jdouble_castl = comdat any

$_Z11jfloat_casti = comdat any

$_ZN6Atomic19release_store_fenceIbbEEvPVT_T0_ = comdat any

$_ZNK6Atomic9StoreImplIbbNS_20PlatformOrderedStoreILm1EL15ScopedFenceType2EEEvEclEPVbb = comdat any

$_ZNK6Atomic20PlatformOrderedStoreILm1EL15ScopedFenceType2EEclIbEEvPVT_S4_ = comdat any

@_ZL11min_jdouble = internal global double 0.000000e+00, align 8
@_ZL11max_jdouble = internal global double 0.000000e+00, align 8
@_ZL10min_jfloat = internal global float 0.000000e+00, align 4
@_ZL10max_jfloat = internal global float 0.000000e+00, align 4
@_ZN6XAbort13_should_abortE = hidden global i8 0, align 1
@llvm.global_ctors = appending global [1 x { i32, ptr, ptr }] [{ i32, ptr, ptr } { i32 65535, ptr @_GLOBAL__sub_I_xAbort.cpp, ptr null }]

; Function Attrs: nounwind uwtable
define internal void @__cxx_global_var_init() #0 section ".text.startup" {
  %1 = call noundef double @_Z12jdouble_castl(i64 noundef 1)
  store double %1, ptr @_ZL11min_jdouble, align 8
  ret void
}

; Function Attrs: mustprogress nounwind uwtable
define linkonce_odr hidden noundef double @_Z12jdouble_castl(i64 noundef %0) #1 comdat {
  %2 = alloca i64, align 8
  store i64 %0, ptr %2, align 8
  %3 = load double, ptr %2, align 8
  ret double %3
}

; Function Attrs: nounwind uwtable
define internal void @__cxx_global_var_init.1() #0 section ".text.startup" {
  %1 = call noundef double @_Z12jdouble_castl(i64 noundef 9218868437227405311)
  store double %1, ptr @_ZL11max_jdouble, align 8
  ret void
}

; Function Attrs: nounwind uwtable
define internal void @__cxx_global_var_init.2() #0 section ".text.startup" {
  %1 = call noundef float @_Z11jfloat_casti(i32 noundef 1)
  store float %1, ptr @_ZL10min_jfloat, align 4
  ret void
}

; Function Attrs: mustprogress nounwind uwtable
define linkonce_odr hidden noundef float @_Z11jfloat_casti(i32 noundef %0) #1 comdat {
  %2 = alloca i32, align 4
  store i32 %0, ptr %2, align 4
  %3 = load float, ptr %2, align 4
  ret float %3
}

; Function Attrs: nounwind uwtable
define internal void @__cxx_global_var_init.3() #0 section ".text.startup" {
  %1 = call noundef float @_Z11jfloat_casti(i32 noundef 2139095039)
  store float %1, ptr @_ZL10max_jfloat, align 4
  ret void
}

; Function Attrs: mustprogress nounwind uwtable
define hidden void @_ZN6XAbort5abortEv() #1 align 2 {
  call void @_ZN6Atomic19release_store_fenceIbbEEvPVT_T0_(ptr noundef @_ZN6XAbort13_should_abortE, i1 noundef zeroext true)
  ret void
}

; Function Attrs: mustprogress nounwind uwtable
define linkonce_odr hidden void @_ZN6Atomic19release_store_fenceIbbEEvPVT_T0_(ptr noundef %0, i1 noundef zeroext %1) #1 comdat align 2 {
  %3 = alloca ptr, align 8
  %4 = alloca i8, align 1
  %5 = alloca %"struct.Atomic::StoreImpl", align 1
  store ptr %0, ptr %3, align 8
  %6 = zext i1 %1 to i8
  store i8 %6, ptr %4, align 1
  %7 = load ptr, ptr %3, align 8
  %8 = load i8, ptr %4, align 1
  %9 = trunc i8 %8 to i1
  call void @_ZNK6Atomic9StoreImplIbbNS_20PlatformOrderedStoreILm1EL15ScopedFenceType2EEEvEclEPVbb(ptr noundef nonnull align 1 dereferenceable(1) %5, ptr noundef %7, i1 noundef zeroext %9)
  ret void
}

; Function Attrs: mustprogress nounwind uwtable
define linkonce_odr hidden void @_ZNK6Atomic9StoreImplIbbNS_20PlatformOrderedStoreILm1EL15ScopedFenceType2EEEvEclEPVbb(ptr noundef nonnull align 1 dereferenceable(1) %0, ptr noundef %1, i1 noundef zeroext %2) #1 comdat align 2 {
  %4 = alloca ptr, align 8
  %5 = alloca ptr, align 8
  %6 = alloca i8, align 1
  %7 = alloca %"struct.Atomic::PlatformOrderedStore", align 1
  store ptr %0, ptr %4, align 8
  store ptr %1, ptr %5, align 8
  %8 = zext i1 %2 to i8
  store i8 %8, ptr %6, align 1
  %9 = load ptr, ptr %5, align 8
  %10 = load i8, ptr %6, align 1
  %11 = trunc i8 %10 to i1
  call void @_ZNK6Atomic20PlatformOrderedStoreILm1EL15ScopedFenceType2EEclIbEEvPVT_S4_(ptr noundef nonnull align 1 dereferenceable(1) %7, ptr noundef %9, i1 noundef zeroext %11)
  ret void
}

; Function Attrs: mustprogress nounwind uwtable
define linkonce_odr hidden void @_ZNK6Atomic20PlatformOrderedStoreILm1EL15ScopedFenceType2EEclIbEEvPVT_S4_(ptr noundef nonnull align 1 dereferenceable(1) %0, ptr noundef %1, i1 noundef zeroext %2) #1 comdat align 2 {
  %4 = alloca ptr, align 8
  %5 = alloca ptr, align 8
  %6 = alloca i8, align 1
  store ptr %0, ptr %4, align 8
  store ptr %1, ptr %5, align 8
  %7 = zext i1 %2 to i8
  store i8 %7, ptr %6, align 1
  %8 = load i8, ptr %6, align 1
  %9 = trunc i8 %8 to i1
  %10 = load ptr, ptr %5, align 8
  %11 = call i8 asm sideeffect "xchgb ($2),$0", "=q,0,r,~{memory},~{dirflag},~{fpsr},~{flags}"(i1 %9, ptr %10) #2, !srcloc !6
  store i8 %11, ptr %6, align 1
  ret void
}

; Function Attrs: nounwind uwtable
define internal void @_GLOBAL__sub_I_xAbort.cpp() #0 section ".text.startup" {
  call void @__cxx_global_var_init()
  call void @__cxx_global_var_init.1()
  call void @__cxx_global_var_init.2()
  call void @__cxx_global_var_init.3()
  ret void
}


!llvm.module.flags = !{!0, !1, !2, !3, !4, !5}

!0 = !{i32 7, !"Dwarf Version", i32 5}
!1 = !{i32 2, !"Debug Info Version", i32 3}
!2 = !{i32 1, !"wchar_size", i32 4}
!3 = !{i32 8, !"PIC Level", i32 2}
!4 = !{i32 7, !"uwtable", i32 2}
!5 = !{i32 7, !"frame-pointer", i32 2}
!6 = !{i64 2145414681}
