; ModuleID = 'bench/openjdk/original/xAbort.ll'
source_filename = "bench/openjdk/original/xAbort.ll"
target datalayout = "e-m:e-p270:32:32-p271:32:32-p272:64:64-i64:64-i128:128-f80:128-n8:16:32:64-S128"
target triple = "x86_64-pc-linux-gnu"

@_ZN6XAbort13_should_abortE = hidden global i8 0, align 1
@llvm.global_ctors = appending global [0 x { i32, ptr, ptr }] zeroinitializer

; Function Attrs: mustprogress nounwind uwtable
define hidden void @_ZN6XAbort5abortEv() local_unnamed_addr #0 align 2 {
  %1 = tail call i8 asm sideeffect "xchgb ($2),$0", "=q,0,r,~{memory},~{dirflag},~{fpsr},~{flags}"(i1 true, ptr nonnull @_ZN6XAbort13_should_abortE) #1, !srcloc !6
  ret void
}


!llvm.module.flags = !{!0, !1, !2, !3, !4, !5}

!0 = !{i32 7, !"Dwarf Version", i32 5}
!1 = !{i32 2, !"Debug Info Version", i32 3}
!2 = !{i32 1, !"wchar_size", i32 4}
!3 = !{i32 8, !"PIC Level", i32 2}
!4 = !{i32 7, !"uwtable", i32 2}
!5 = !{i32 7, !"frame-pointer", i32 2}
!6 = !{i64 2145414681}
